target datalayout = "e-m:e-p270:32:32-p271:32:32-p272:64:64-i64:64-i128:128-f80:128-n8:16:32:64-S128"
target triple = "x86_64-pc-linux-gnu"

%struct.t_atoms = type { i32, ptr, ptr, ptr, ptr, i32, ptr, ptr, i8, i8, i8, i8, i8 }
%"class.std::__cxx11::basic_string" = type { %"struct.std::__cxx11::basic_string<char>::_Alloc_hider", i64, %union.anon.3 }
%"struct.std::__cxx11::basic_string<char>::_Alloc_hider" = type { ptr }
%union.anon.3 = type { i64, [8 x i8] }
%"class.std::vector.6" = type { %"struct.std::_Vector_base.7" }
%"struct.std::_Vector_base.7" = type { %"struct.std::_Vector_base<int, std::allocator<int>>::_Vector_impl" }
%"struct.std::_Vector_base<int, std::allocator<int>>::_Vector_impl" = type { %"struct.std::_Vector_base<int, std::allocator<int>>::_Vector_impl_data" }
%"struct.std::_Vector_base<int, std::allocator<int>>::_Vector_impl_data" = type { ptr, ptr, ptr }
%"class.__gnu_cxx::__normal_iterator.64" = type { ptr }
%struct.IndexGroup = type { %"class.std::__cxx11::basic_string", %"class.std::vector.6" }
%struct.t_atom = type { float, float, float, float, i16, i16, i32, i32, i32, [4 x i8] }
%struct.t_resinfo = type { ptr, i32, i8, i32, i8, ptr }

@.str.6 = private unnamed_addr constant [1 x i8] zeroinitializer, align 1
@.str.140 = private unnamed_addr constant [2 x i8] c"s\00", align 1
@.str.154 = private unnamed_addr constant [39 x i8] c"Index %s contains number>nres (%d>%d)\0A\00", align 1
@.str.155 = private unnamed_addr constant [47 x i8] c"Found %d atom%s in %td residues from group %s\0A\00", align 1

; Function Attrs: mustprogress nounwind uwtable
define linkonce_odr noundef i64 @_ZNKSt6vectorIiSaIiEE4sizeEv(ptr noundef nonnull align 8 dereferenceable(24) %0) #4 comdat align 2 {
  %2 = alloca ptr, align 8
  store ptr %0, ptr %2, align 8, !tbaa !85
  %3 = load ptr, ptr %2, align 8
  %4 = getelementptr inbounds nuw %"struct.std::_Vector_base.7", ptr %3, i32 0, i32 0
  %5 = getelementptr inbounds nuw %"struct.std::_Vector_base<int, std::allocator<int>>::_Vector_impl_data", ptr %4, i32 0, i32 1
  %6 = load ptr, ptr %5, align 8, !tbaa !186
  %7 = getelementptr inbounds nuw %"struct.std::_Vector_base.7", ptr %3, i32 0, i32 0
  %8 = getelementptr inbounds nuw %"struct.std::_Vector_base<int, std::allocator<int>>::_Vector_impl_data", ptr %7, i32 0, i32 0
  %9 = load ptr, ptr %8, align 8, !tbaa !184
  %10 = ptrtoint ptr %6 to i64
  %11 = ptrtoint ptr %9 to i64
  %12 = sub i64 %10, %11
  %13 = sdiv exact i64 %12, 4
  ret i64 %13
}

; Function Attrs: mustprogress nounwind uwtable
define available_externally noundef ptr @_ZNKSt7__cxx1112basic_stringIcSt11char_traitsIcESaIcEE7_M_dataEv(ptr noundef nonnull align 8 dereferenceable(32) %0) #4 align 2 {
  %2 = alloca ptr, align 8
  store ptr %0, ptr %2, align 8, !tbaa !46
  %3 = load ptr, ptr %2, align 8
  %4 = getelementptr inbounds nuw %"class.std::__cxx11::basic_string", ptr %3, i32 0, i32 0
  %5 = getelementptr inbounds nuw %"struct.std::__cxx11::basic_string<char>::_Alloc_hider", ptr %4, i32 0, i32 0
  %6 = load ptr, ptr %5, align 8, !tbaa !137
  ret ptr %6
}

; Function Attrs: mustprogress nounwind uwtable
define linkonce_odr noundef nonnull align 8 dereferenceable(8) ptr @_ZNK9__gnu_cxx17__normal_iteratorIPKiSt6vectorIiSaIiEEE4baseEv(ptr noundef nonnull align 8 dereferenceable(8) %0) #4 comdat align 2 {
  %2 = alloca ptr, align 8
  store ptr %0, ptr %2, align 8, !tbaa !198
  %3 = load ptr, ptr %2, align 8
  %4 = getelementptr inbounds nuw %"class.__gnu_cxx::__normal_iterator.64", ptr %3, i32 0, i32 0
  ret ptr %4
}

; Function Attrs: mustprogress nounwind uwtable
define linkonce_odr void @_ZN9__gnu_cxx17__normal_iteratorIPKiSt6vectorIiSaIiEEEC2ERKS2_(ptr noundef nonnull align 8 dereferenceable(8) %0, ptr noundef nonnull align 8 dereferenceable(8) %1) unnamed_addr #4 comdat align 2 {
  %3 = alloca ptr, align 8
  %4 = alloca ptr, align 8
  store ptr %0, ptr %3, align 8, !tbaa !198
  store ptr %1, ptr %4, align 8, !tbaa !196
  %5 = load ptr, ptr %3, align 8
  %6 = getelementptr inbounds nuw %"class.__gnu_cxx::__normal_iterator.64", ptr %5, i32 0, i32 0
  %7 = load ptr, ptr %4, align 8, !tbaa !196
  %8 = load ptr, ptr %7, align 8, !tbaa !97
  store ptr %8, ptr %6, align 8, !tbaa !200
  ret void
}

; Function Attrs: mustprogress nounwind uwtable
define linkonce_odr noundef i64 @_ZN3gmx5ssizeISt6vectorIiSaIiEEEElRKT_(ptr noundef nonnull align 8 dereferenceable(24) %0) #4 comdat {
  %2 = alloca ptr, align 8
  store ptr %0, ptr %2, align 8, !tbaa !85
  %3 = load ptr, ptr %2, align 8, !tbaa !85
  %4 = call noundef i64 @_ZNKSt6vectorIiSaIiEE4sizeEv(ptr noundef nonnull align 8 dereferenceable(24) %3) #19
  ret i64 %4
}

; Function Attrs: mustprogress nounwind uwtable
define linkonce_odr noundef nonnull align 8 dereferenceable(8) ptr @_ZN9__gnu_cxx17__normal_iteratorIPKiSt6vectorIiSaIiEEEppEv(ptr noundef nonnull align 8 dereferenceable(8) %0) #4 comdat align 2 {
  %2 = alloca ptr, align 8
  store ptr %0, ptr %2, align 8, !tbaa !198
  %3 = load ptr, ptr %2, align 8
  %4 = getelementptr inbounds nuw %"class.__gnu_cxx::__normal_iterator.64", ptr %3, i32 0, i32 0
  %5 = load ptr, ptr %4, align 8, !tbaa !200
  %6 = getelementptr inbounds nuw i32, ptr %5, i32 1
  store ptr %6, ptr %4, align 8, !tbaa !200
  ret ptr %3
}

; Function Attrs: mustprogress nounwind uwtable
define available_externally noundef ptr @_ZNKSt7__cxx1112basic_stringIcSt11char_traitsIcESaIcEE5c_strEv(ptr noundef nonnull align 8 dereferenceable(32) %0) #4 align 2 {
  %2 = alloca ptr, align 8
  store ptr %0, ptr %2, align 8, !tbaa !46
  %3 = load ptr, ptr %2, align 8
  %4 = call noundef ptr @_ZNKSt7__cxx1112basic_stringIcSt11char_traitsIcESaIcEE7_M_dataEv(ptr noundef nonnull align 8 dereferenceable(32) %3)
  ret ptr %4
}

; Function Attrs: mustprogress nounwind uwtable
define linkonce_odr noundef nonnull align 4 dereferenceable(4) ptr @_ZNK9__gnu_cxx17__normal_iteratorIPKiSt6vectorIiSaIiEEEdeEv(ptr noundef nonnull align 8 dereferenceable(8) %0) #4 comdat align 2 {
  %2 = alloca ptr, align 8
  store ptr %0, ptr %2, align 8, !tbaa !198
  %3 = load ptr, ptr %2, align 8
  %4 = getelementptr inbounds nuw %"class.__gnu_cxx::__normal_iterator.64", ptr %3, i32 0, i32 0
  %5 = load ptr, ptr %4, align 8, !tbaa !200
  ret ptr %5
}

; Function Attrs: inlinehint mustprogress nounwind uwtable
define linkonce_odr noundef zeroext i1 @_ZN9__gnu_cxxneIPKiSt6vectorIiSaIiEEEEbRKNS_17__normal_iteratorIT_T0_EESB_(ptr noundef nonnull align 8 dereferenceable(8) %0, ptr noundef nonnull align 8 dereferenceable(8) %1) #9 comdat {
  %3 = alloca ptr, align 8
  %4 = alloca ptr, align 8
  store ptr %0, ptr %3, align 8, !tbaa !198
  store ptr %1, ptr %4, align 8, !tbaa !198
  %5 = load ptr, ptr %3, align 8, !tbaa !198
  %6 = call noundef nonnull align 8 dereferenceable(8) ptr @_ZNK9__gnu_cxx17__normal_iteratorIPKiSt6vectorIiSaIiEEE4baseEv(ptr noundef nonnull align 8 dereferenceable(8) %5) #19
  %7 = load ptr, ptr %6, align 8, !tbaa !97
  %8 = load ptr, ptr %4, align 8, !tbaa !198
  %9 = call noundef nonnull align 8 dereferenceable(8) ptr @_ZNK9__gnu_cxx17__normal_iteratorIPKiSt6vectorIiSaIiEEE4baseEv(ptr noundef nonnull align 8 dereferenceable(8) %8) #19
  %10 = load ptr, ptr %9, align 8, !tbaa !97
  %11 = icmp ne ptr %7, %10
  ret i1 %11
}

; Function Attrs: mustprogress nounwind uwtable
define linkonce_odr ptr @_ZNKSt6vectorIiSaIiEE3endEv(ptr noundef nonnull align 8 dereferenceable(24) %0) #4 comdat align 2 {
  %2 = alloca %"class.__gnu_cxx::__normal_iterator.64", align 8
  %3 = alloca ptr, align 8
  store ptr %0, ptr %3, align 8, !tbaa !85
  %4 = load ptr, ptr %3, align 8
  %5 = getelementptr inbounds nuw %"struct.std::_Vector_base.7", ptr %4, i32 0, i32 0
  %6 = getelementptr inbounds nuw %"struct.std::_Vector_base<int, std::allocator<int>>::_Vector_impl_data", ptr %5, i32 0, i32 1
  call void @_ZN9__gnu_cxx17__normal_iteratorIPKiSt6vectorIiSaIiEEEC2ERKS2_(ptr noundef nonnull align 8 dereferenceable(8) %2, ptr noundef nonnull align 8 dereferenceable(8) %6) #19
  %7 = getelementptr inbounds nuw %"class.__gnu_cxx::__normal_iterator.64", ptr %2, i32 0, i32 0
  %8 = load ptr, ptr %7, align 8
  ret ptr %8
}

; Function Attrs: mustprogress nounwind uwtable
define linkonce_odr ptr @_ZNKSt6vectorIiSaIiEE5beginEv(ptr noundef nonnull align 8 dereferenceable(24) %0) #4 comdat align 2 {
  %2 = alloca %"class.__gnu_cxx::__normal_iterator.64", align 8
  %3 = alloca ptr, align 8
  store ptr %0, ptr %3, align 8, !tbaa !85
  %4 = load ptr, ptr %3, align 8
  %5 = getelementptr inbounds nuw %"struct.std::_Vector_base.7", ptr %4, i32 0, i32 0
  %6 = getelementptr inbounds nuw %"struct.std::_Vector_base<int, std::allocator<int>>::_Vector_impl_data", ptr %5, i32 0, i32 0
  call void @_ZN9__gnu_cxx17__normal_iteratorIPKiSt6vectorIiSaIiEEEC2ERKS2_(ptr noundef nonnull align 8 dereferenceable(8) %2, ptr noundef nonnull align 8 dereferenceable(8) %6) #19
  %7 = getelementptr inbounds nuw %"class.__gnu_cxx::__normal_iterator.64", ptr %2, i32 0, i32 0
  %8 = load ptr, ptr %7, align 8
  ret ptr %8
}

; Function Attrs: mustprogress uwtable
define internal noundef zeroext i1 @_ZL25atoms_from_residuenumbersPK7t_atomsRK10IndexGroupPiS5_(ptr noundef %0, ptr noundef nonnull align 8 dereferenceable(56) %1, ptr noundef %2, ptr noundef %3) #0 {
  %5 = alloca i1, align 1
  %6 = alloca ptr, align 8
  %7 = alloca ptr, align 8
  %8 = alloca ptr, align 8
  %9 = alloca ptr, align 8
  %10 = alloca i32, align 4
  %11 = alloca ptr, align 8
  %12 = alloca %"class.__gnu_cxx::__normal_iterator.64", align 8
  %13 = alloca %"class.__gnu_cxx::__normal_iterator.64", align 8
  %14 = alloca i32, align 4
  %15 = alloca i32, align 4
  %16 = alloca i32, align 4
  %17 = alloca i32, align 4
  %18 = alloca ptr, align 8
  %19 = alloca %"class.__gnu_cxx::__normal_iterator.64", align 8
  %20 = alloca %"class.__gnu_cxx::__normal_iterator.64", align 8
  %21 = alloca i32, align 4
  store ptr %0, ptr %6, align 8, !tbaa !87
  store ptr %1, ptr %7, align 8, !tbaa !70
  store ptr %2, ptr %8, align 8, !tbaa !97
  store ptr %3, ptr %9, align 8, !tbaa !97
  call void @llvm.lifetime.start.p0(i64 4, ptr %10) #19
  %22 = load ptr, ptr %6, align 8, !tbaa !87
  %23 = getelementptr inbounds nuw %struct.t_atoms, ptr %22, i32 0, i32 5
  %24 = load i32, ptr %23, align 8, !tbaa !282
  store i32 %24, ptr %10, align 4, !tbaa !4
  call void @llvm.lifetime.start.p0(i64 8, ptr %11) #19
  %25 = load ptr, ptr %7, align 8, !tbaa !70
  %26 = getelementptr inbounds nuw %struct.IndexGroup, ptr %25, i32 0, i32 1
  store ptr %26, ptr %11, align 8, !tbaa !85
  call void @llvm.lifetime.start.p0(i64 8, ptr %12) #19
  %27 = load ptr, ptr %11, align 8, !tbaa !85
  %28 = call ptr @_ZNKSt6vectorIiSaIiEE5beginEv(ptr noundef nonnull align 8 dereferenceable(24) %27) #19
  %29 = getelementptr inbounds nuw %"class.__gnu_cxx::__normal_iterator.64", ptr %12, i32 0, i32 0
  store ptr %28, ptr %29, align 8
  call void @llvm.lifetime.start.p0(i64 8, ptr %13) #19
  %30 = load ptr, ptr %11, align 8, !tbaa !85
  %31 = call ptr @_ZNKSt6vectorIiSaIiEE3endEv(ptr noundef nonnull align 8 dereferenceable(24) %30) #19
  %32 = getelementptr inbounds nuw %"class.__gnu_cxx::__normal_iterator.64", ptr %13, i32 0, i32 0
  store ptr %31, ptr %32, align 8
  br label %33

33:                                               ; preds = %54, %4
  %34 = call noundef zeroext i1 @_ZN9__gnu_cxxneIPKiSt6vectorIiSaIiEEEEbRKNS_17__normal_iteratorIT_T0_EESB_(ptr noundef nonnull align 8 dereferenceable(8) %12, ptr noundef nonnull align 8 dereferenceable(8) %13) #19
  br i1 %34, label %36, label %35

35:                                               ; preds = %33
  store i32 2, ptr %14, align 4
  br label %56

36:                                               ; preds = %33
  call void @llvm.lifetime.start.p0(i64 4, ptr %15) #19
  %37 = call noundef nonnull align 4 dereferenceable(4) ptr @_ZNK9__gnu_cxx17__normal_iteratorIPKiSt6vectorIiSaIiEEEdeEv(ptr noundef nonnull align 8 dereferenceable(8) %12) #19
  %38 = load i32, ptr %37, align 4, !tbaa !4
  store i32 %38, ptr %15, align 4, !tbaa !4
  %39 = load i32, ptr %15, align 4, !tbaa !4
  %40 = load i32, ptr %10, align 4, !tbaa !4
  %41 = icmp sge i32 %39, %40
  br i1 %41, label %42, label %50

42:                                               ; preds = %36
  %43 = load ptr, ptr %7, align 8, !tbaa !70
  %44 = getelementptr inbounds nuw %struct.IndexGroup, ptr %43, i32 0, i32 0
  %45 = call noundef ptr @_ZNKSt7__cxx1112basic_stringIcSt11char_traitsIcESaIcEE5c_strEv(ptr noundef nonnull align 8 dereferenceable(32) %44) #19
  %46 = load i32, ptr %15, align 4, !tbaa !4
  %47 = add nsw i32 %46, 1
  %48 = load i32, ptr %10, align 4, !tbaa !4
  %49 = call i32 (ptr, ...) @printf(ptr noundef @.str.154, ptr noundef %45, i32 noundef %47, i32 noundef %48)
  store i1 false, ptr %5, align 1
  store i32 1, ptr %14, align 4
  br label %51

50:                                               ; preds = %36
  store i32 0, ptr %14, align 4
  br label %51

51:                                               ; preds = %50, %42
  call void @llvm.lifetime.end.p0(i64 4, ptr %15) #19
  %52 = load i32, ptr %14, align 4
  switch i32 %52, label %56 [
    i32 0, label %53
  ]

53:                                               ; preds = %51
  br label %54

54:                                               ; preds = %53
  %55 = call noundef nonnull align 8 dereferenceable(8) ptr @_ZN9__gnu_cxx17__normal_iteratorIPKiSt6vectorIiSaIiEEEppEv(ptr noundef nonnull align 8 dereferenceable(8) %12) #19
  br label %33

56:                                               ; preds = %51, %35
  call void @llvm.lifetime.end.p0(i64 8, ptr %13) #19
  call void @llvm.lifetime.end.p0(i64 8, ptr %12) #19
  call void @llvm.lifetime.end.p0(i64 8, ptr %11) #19
  %57 = load i32, ptr %14, align 4
  switch i32 %57, label %138 [
    i32 2, label %58
  ]

58:                                               ; preds = %56
  call void @llvm.lifetime.start.p0(i64 4, ptr %16) #19
  store i32 0, ptr %16, align 4, !tbaa !4
  br label %59

59:                                               ; preds = %118, %58
  %60 = load i32, ptr %16, align 4, !tbaa !4
  %61 = load ptr, ptr %6, align 8, !tbaa !87
  %62 = getelementptr inbounds nuw %struct.t_atoms, ptr %61, i32 0, i32 0
  %63 = load i32, ptr %62, align 8, !tbaa !41
  %64 = icmp slt i32 %60, %63
  br i1 %64, label %66, label %65

65:                                               ; preds = %59
  store i32 4, ptr %14, align 4
  call void @llvm.lifetime.end.p0(i64 4, ptr %16) #19
  br label %121

66:                                               ; preds = %59
  call void @llvm.lifetime.start.p0(i64 4, ptr %17) #19
  %67 = load ptr, ptr %6, align 8, !tbaa !87
  %68 = getelementptr inbounds nuw %struct.t_atoms, ptr %67, i32 0, i32 6
  %69 = load ptr, ptr %68, align 8, !tbaa !228
  %70 = load ptr, ptr %6, align 8, !tbaa !87
  %71 = getelementptr inbounds nuw %struct.t_atoms, ptr %70, i32 0, i32 1
  %72 = load ptr, ptr %71, align 8, !tbaa !222
  %73 = load i32, ptr %16, align 4, !tbaa !4
  %74 = sext i32 %73 to i64
  %75 = getelementptr inbounds %struct.t_atom, ptr %72, i64 %74
  %76 = getelementptr inbounds nuw %struct.t_atom, ptr %75, i32 0, i32 7
  %77 = load i32, ptr %76, align 4, !tbaa !223
  %78 = sext i32 %77 to i64
  %79 = getelementptr inbounds %struct.t_resinfo, ptr %69, i64 %78
  %80 = getelementptr inbounds nuw %struct.t_resinfo, ptr %79, i32 0, i32 1
  %81 = load i32, ptr %80, align 8, !tbaa !244
  store i32 %81, ptr %17, align 4, !tbaa !4
  call void @llvm.lifetime.start.p0(i64 8, ptr %18) #19
  %82 = load ptr, ptr %7, align 8, !tbaa !70
  %83 = getelementptr inbounds nuw %struct.IndexGroup, ptr %82, i32 0, i32 1
  store ptr %83, ptr %18, align 8, !tbaa !85
  call void @llvm.lifetime.start.p0(i64 8, ptr %19) #19
  %84 = load ptr, ptr %18, align 8, !tbaa !85
  %85 = call ptr @_ZNKSt6vectorIiSaIiEE5beginEv(ptr noundef nonnull align 8 dereferenceable(24) %84) #19
  %86 = getelementptr inbounds nuw %"class.__gnu_cxx::__normal_iterator.64", ptr %19, i32 0, i32 0
  store ptr %85, ptr %86, align 8
  call void @llvm.lifetime.start.p0(i64 8, ptr %20) #19
  %87 = load ptr, ptr %18, align 8, !tbaa !85
  %88 = call ptr @_ZNKSt6vectorIiSaIiEE3endEv(ptr noundef nonnull align 8 dereferenceable(24) %87) #19
  %89 = getelementptr inbounds nuw %"class.__gnu_cxx::__normal_iterator.64", ptr %20, i32 0, i32 0
  store ptr %88, ptr %89, align 8
  br label %90

90:                                               ; preds = %114, %66
  %91 = call noundef zeroext i1 @_ZN9__gnu_cxxneIPKiSt6vectorIiSaIiEEEEbRKNS_17__normal_iteratorIT_T0_EESB_(ptr noundef nonnull align 8 dereferenceable(8) %19, ptr noundef nonnull align 8 dereferenceable(8) %20) #19
  br i1 %91, label %93, label %92

92:                                               ; preds = %90
  store i32 7, ptr %14, align 4
  br label %116

93:                                               ; preds = %90
  call void @llvm.lifetime.start.p0(i64 4, ptr %21) #19
  %94 = call noundef nonnull align 4 dereferenceable(4) ptr @_ZNK9__gnu_cxx17__normal_iteratorIPKiSt6vectorIiSaIiEEEdeEv(ptr noundef nonnull align 8 dereferenceable(8) %19) #19
  %95 = load i32, ptr %94, align 4, !tbaa !4
  store i32 %95, ptr %21, align 4, !tbaa !4
  %96 = load i32, ptr %21, align 4, !tbaa !4
  %97 = add nsw i32 %96, 1
  %98 = load i32, ptr %17, align 4, !tbaa !4
  %99 = icmp eq i32 %97, %98
  br i1 %99, label %100, label %110

100:                                              ; preds = %93
  %101 = load i32, ptr %16, align 4, !tbaa !4
  %102 = load ptr, ptr %9, align 8, !tbaa !97
  %103 = load ptr, ptr %8, align 8, !tbaa !97
  %104 = load i32, ptr %103, align 4, !tbaa !4
  %105 = sext i32 %104 to i64
  %106 = getelementptr inbounds i32, ptr %102, i64 %105
  store i32 %101, ptr %106, align 4, !tbaa !4
  %107 = load ptr, ptr %8, align 8, !tbaa !97
  %108 = load i32, ptr %107, align 4, !tbaa !4
  %109 = add nsw i32 %108, 1
  store i32 %109, ptr %107, align 4, !tbaa !4
  store i32 7, ptr %14, align 4
  br label %111

110:                                              ; preds = %93
  store i32 0, ptr %14, align 4
  br label %111

111:                                              ; preds = %110, %100
  call void @llvm.lifetime.end.p0(i64 4, ptr %21) #19
  %112 = load i32, ptr %14, align 4
  switch i32 %112, label %116 [
    i32 0, label %113
  ]

113:                                              ; preds = %111
  br label %114

114:                                              ; preds = %113
  %115 = call noundef nonnull align 8 dereferenceable(8) ptr @_ZN9__gnu_cxx17__normal_iteratorIPKiSt6vectorIiSaIiEEEppEv(ptr noundef nonnull align 8 dereferenceable(8) %19) #19
  br label %90

116:                                              ; preds = %111, %92
  call void @llvm.lifetime.end.p0(i64 8, ptr %20) #19
  call void @llvm.lifetime.end.p0(i64 8, ptr %19) #19
  call void @llvm.lifetime.end.p0(i64 8, ptr %18) #19
  br label %117

117:                                              ; preds = %116
  call void @llvm.lifetime.end.p0(i64 4, ptr %17) #19
  br label %118

118:                                              ; preds = %117
  %119 = load i32, ptr %16, align 4, !tbaa !4
  %120 = add nsw i32 %119, 1
  store i32 %120, ptr %16, align 4, !tbaa !4
  br label %59, !llvm.loop !283

121:                                              ; preds = %65
  %122 = load ptr, ptr %8, align 8, !tbaa !97
  %123 = load i32, ptr %122, align 4, !tbaa !4
  %124 = load ptr, ptr %8, align 8, !tbaa !97
  %125 = load i32, ptr %124, align 4, !tbaa !4
  %126 = icmp eq i32 %125, 1
  %127 = select i1 %126, ptr @.str.6, ptr @.str.140
  %128 = load ptr, ptr %7, align 8, !tbaa !70
  %129 = getelementptr inbounds nuw %struct.IndexGroup, ptr %128, i32 0, i32 1
  %130 = call noundef i64 @_ZN3gmx5ssizeISt6vectorIiSaIiEEEElRKT_(ptr noundef nonnull align 8 dereferenceable(24) %129)
  %131 = load ptr, ptr %7, align 8, !tbaa !70
  %132 = getelementptr inbounds nuw %struct.IndexGroup, ptr %131, i32 0, i32 0
  %133 = call noundef ptr @_ZNKSt7__cxx1112basic_stringIcSt11char_traitsIcESaIcEE5c_strEv(ptr noundef nonnull align 8 dereferenceable(32) %132) #19
  %134 = call i32 (ptr, ...) @printf(ptr noundef @.str.155, i32 noundef %123, ptr noundef %127, i64 noundef %130, ptr noundef %133)
  %135 = load ptr, ptr %8, align 8, !tbaa !97
  %136 = load i32, ptr %135, align 4, !tbaa !4
  %137 = icmp ne i32 %136, 0
  store i1 %137, ptr %5, align 1
  store i32 1, ptr %14, align 4
  br label %138

138:                                              ; preds = %121, %56
  call void @llvm.lifetime.end.p0(i64 4, ptr %10) #19
  %139 = load i1, ptr %5, align 1
  ret i1 %139
}