; Function Attrs: mustprogress nofree nounwind uwtable
define internal fastcc noundef zeroext i1 @_ZL25atoms_from_residuenumbersPK7t_atomsRK10IndexGroupPiS5_(ptr noundef nonnull readonly captures(none) %0, ptr noundef nonnull readonly align 8 captures(none) dereferenceable(56) %1, ptr noundef nonnull captures(none) %2, ptr noundef writeonly captures(none) %3) unnamed_addr #20 {
  %5 = getelementptr inbounds nuw i8, ptr %0, i64 40
  %6 = load i32, ptr %5, align 8, !tbaa !143
  %7 = getelementptr inbounds nuw i8, ptr %1, i64 32
  %8 = load ptr, ptr %7, align 8, !tbaa !61
  %9 = getelementptr inbounds nuw i8, ptr %1, i64 40
  %10 = load ptr, ptr %9, align 8, !tbaa !61
  %.not5254 = icmp eq ptr %8, %10
  br i1 %.not5254, label %.critedge42.preheader.thread, label %.critedge

11:                                               ; preds = %.critedge
  %12 = getelementptr inbounds nuw i8, ptr %.sroa.049.055, i64 4
  %.not52 = icmp eq ptr %12, %10
  br i1 %.not52, label %.critedge42.preheader, label %.critedge

.critedge42.preheader:                            ; preds = %11
  %13 = load i32, ptr %0, align 8, !tbaa !46
  %14 = icmp sgt i32 %13, 0
  br i1 %14, label %.lr.ph, label %.critedge42._crit_edge

.critedge42.preheader.thread:                     ; preds = %4
  %15 = load i32, ptr %0, align 8, !tbaa !46
  %16 = icmp sgt i32 %15, 0
  %spec.select = select i1 %16, ptr %8, ptr %10
  br label %.critedge42._crit_edge

.lr.ph:                                           ; preds = %.critedge42.preheader
  %17 = getelementptr inbounds nuw i8, ptr %0, i64 48
  %18 = load ptr, ptr %17, align 8, !tbaa !77
  %19 = getelementptr inbounds nuw i8, ptr %0, i64 8
  %20 = load ptr, ptr %19, align 8, !tbaa !71
  br label %.critedge44.lr.ph

.critedge:                                        ; preds = %4, %11
  %.sroa.049.055 = phi ptr [ %12, %11 ], [ %8, %4 ]
  %21 = load i32, ptr %.sroa.049.055, align 4, !tbaa !4
  %.not = icmp slt i32 %21, %6
  br i1 %.not, label %11, label %22

22:                                               ; preds = %.critedge
  %23 = load ptr, ptr %1, align 8, !tbaa !28
  %24 = add nsw i32 %21, 1
  %25 = tail call i32 (ptr, ...) @printf(ptr noundef nonnull dereferenceable(1) @.str.154, ptr noundef %23, i32 noundef %24, i32 noundef %6)
  br label %58

.critedge42._crit_edge:                           ; preds = %.critedge42, %.critedge42.preheader.thread, %.critedge42.preheader
  %26 = phi ptr [ %10, %.critedge42.preheader ], [ %spec.select, %.critedge42.preheader.thread ], [ %10, %.critedge42 ]
  %27 = load i32, ptr %2, align 4, !tbaa !4
  %28 = icmp eq i32 %27, 1
  %29 = select i1 %28, ptr @.str.6, ptr @.str.140
  %30 = ptrtoint ptr %26 to i64
  %31 = ptrtoint ptr %8 to i64
  %32 = sub i64 %30, %31
  %33 = ashr exact i64 %32, 2
  %34 = load ptr, ptr %1, align 8, !tbaa !28
  %35 = tail call i32 (ptr, ...) @printf(ptr noundef nonnull dereferenceable(1) @.str.155, i32 noundef %27, ptr noundef nonnull %29, i64 noundef %33, ptr noundef %34)
  %36 = load i32, ptr %2, align 4, !tbaa !4
  %37 = icmp ne i32 %36, 0
  br label %58

.critedge44.lr.ph:                                ; preds = %.lr.ph, %.critedge42
  %38 = phi i32 [ %55, %.critedge42 ], [ %13, %.lr.ph ]
  %indvars.iv = phi i64 [ %indvars.iv.next, %.critedge42 ], [ 0, %.lr.ph ]
  %39 = getelementptr inbounds nuw %struct.t_atom, ptr %20, i64 %indvars.iv, i32 7
  %40 = load i32, ptr %39, align 4, !tbaa !72
  %41 = sext i32 %40 to i64
  %42 = getelementptr inbounds %struct.t_resinfo, ptr %18, i64 %41, i32 1
  %43 = load i32, ptr %42, align 8, !tbaa !119
  br label %.critedge44

44:                                               ; preds = %.critedge44
  %45 = getelementptr inbounds nuw i8, ptr %.sroa.045.057, i64 4
  %.not53 = icmp eq ptr %45, %10
  br i1 %.not53, label %.critedge42, label %.critedge44

.critedge44:                                      ; preds = %.critedge44.lr.ph, %44
  %.sroa.045.057 = phi ptr [ %8, %.critedge44.lr.ph ], [ %45, %44 ]
  %46 = load i32, ptr %.sroa.045.057, align 4, !tbaa !4
  %47 = add nsw i32 %46, 1
  %.not40 = icmp eq i32 %47, %43
  br i1 %.not40, label %48, label %44

48:                                               ; preds = %.critedge44
  %49 = load i32, ptr %2, align 4, !tbaa !4
  %50 = sext i32 %49 to i64
  %51 = getelementptr inbounds i32, ptr %3, i64 %50
  %52 = trunc nuw nsw i64 %indvars.iv to i32
  store i32 %52, ptr %51, align 4, !tbaa !4
  %53 = load i32, ptr %2, align 4, !tbaa !4
  %54 = add nsw i32 %53, 1
  store i32 %54, ptr %2, align 4, !tbaa !4
  %.pre = load i32, ptr %0, align 8, !tbaa !46
  br label %.critedge42

.critedge42:                                      ; preds = %44, %48
  %55 = phi i32 [ %.pre, %48 ], [ %38, %44 ]
  %indvars.iv.next = add nuw nsw i64 %indvars.iv, 1
  %56 = sext i32 %55 to i64
  %57 = icmp slt i64 %indvars.iv.next, %56
  br i1 %57, label %.critedge44.lr.ph, label %.critedge42._crit_edge, !llvm.loop !144

58:                                               ; preds = %22, %.critedge42._crit_edge
  %.3 = phi i1 [ %37, %.critedge42._crit_edge ], [ false, %22 ]
  ret i1 %.3
}